Certificate:
    Data:
        Version: 3 (0x2)
        Serial Number:
            b9:a5:0f:70:7c:5b:a9:e3:dc:2d:52:bb:ee:35:1b:99
    Signature Algorithm: sha256WithRSAEncryption
        Issuer: CN=yunwei.edu
        Validity
            Not Before: Mar 28 07:25:56 2018 GMT
            Not After : Mar 25 07:25:56 2028 GMT
        Subject: CN=192.168.31.140
        Subject Public Key Info:
            Public Key Algorithm: rsaEncryption
                Public-Key: (2048 bit)
                Modulus:
                    00:ca:92:01:10:c0:66:ea:a2:66:5e:2d:f5:fd:99:
                    af:83:c9:d2:15:fc:bf:f1:cf:f2:60:93:f8:ee:66:
                    48:ba:ba:69:55:cd:c7:40:af:72:c5:47:61:3f:2d:
                    bc:01:07:7e:70:d7:e6:a7:ec:f6:5b:27:ae:57:b2:
                    d2:8d:cc:9d:43:45:71:09:c7:ea:40:65:9a:6a:8c:
                    3a:01:3d:79:9a:f4:e1:50:27:80:08:fb:e3:c0:53:
                    ff:73:ab:05:61:c8:2a:69:0c:a0:a4:4c:4a:19:76:
                    b2:dc:55:0d:aa:0c:97:8a:af:5b:df:0a:0b:2e:28:
                    59:09:15:67:33:85:e7:cc:5f:de:3f:db:c7:00:dc:
                    fe:1d:a9:bb:5e:46:a4:9c:fd:27:9f:83:50:48:65:
                    4c:2a:60:74:2c:1b:f5:c0:17:70:2d:98:2b:26:1e:
                    9c:c3:1b:72:e1:58:e5:5b:44:f4:cf:e4:49:1f:da:
                    03:c2:2d:52:2d:dd:57:94:6b:13:f3:f8:b2:e3:c9:
                    3a:d8:ec:76:a0:72:44:07:b7:70:84:ce:a7:a0:26:
                    df:6b:d6:8f:97:4d:f1:a5:32:e7:3e:7a:39:b4:b9:
                    76:a9:16:4a:57:0d:2b:b9:c3:c0:1c:25:05:79:56:
                    56:7a:ff:ab:9f:61:33:e2:bd:d4:51:eb:89:52:66:
                    69:83
                Exponent: 65537 (0x10001)
        X509v3 extensions:
            X509v3 Basic Constraints: 
                CA:FALSE
            X509v3 Subject Key Identifier: 
                87:79:00:6B:26:5A:6E:0D:8C:12:8A:E1:5E:65:75:03:92:D0:75:23
            X509v3 Authority Key Identifier: 
                keyid:4D:DD:94:91:28:D4:9B:EF:D3:AF:FA:C1:35:ED:78:67:29:BB:2B:2C
                DirName:/CN=yunwei.edu
                serial:E2:01:5B:DF:DF:76:93:07

            X509v3 Extended Key Usage: 
                TLS Web Server Authentication
            X509v3 Key Usage: 
                Digital Signature, Key Encipherment
            X509v3 Subject Alternative Name: 
                IP Address:192.168.31.140
    Signature Algorithm: sha256WithRSAEncryption
         45:62:05:41:dc:b3:de:18:38:e5:0a:fa:62:9f:c3:6e:0f:e7:
         84:50:03:47:61:07:f5:54:99:dc:18:7e:25:45:c7:a1:9c:f0:
         de:c4:e9:fd:fe:76:d2:85:37:eb:e1:9c:04:1b:91:53:ed:63:
         c9:3d:4b:91:6d:a2:17:1d:86:02:6a:05:a5:05:9c:ce:70:de:
         85:c2:76:d3:b5:be:cf:12:75:5b:9e:42:38:08:72:c4:5e:ed:
         eb:7c:9c:c8:26:e5:35:07:22:a0:25:cb:3d:24:cf:70:cd:1f:
         c5:3f:de:eb:3e:ad:3d:1c:d0:a2:a8:ba:a6:57:6c:b3:9e:34:
         18:71:f8:a3:5e:44:1d:98:70:43:7c:1e:c2:ae:85:0a:16:a3:
         ce:45:fd:6c:82:e3:4c:37:7e:6f:36:54:4b:52:72:37:18:8c:
         89:ee:58:4b:5a:b7:7b:1a:a1:93:be:86:ea:41:f0:3b:70:c8:
         1c:4e:f1:30:fe:55:e2:18:0b:50:c1:ed:52:e5:75:e2:d4:38:
         5e:89:e3:07:d7:25:50:d5:e0:b9:e6:ce:af:5b:59:bd:0e:96:
         24:24:88:19:e8:ed:63:d0:11:ab:af:dc:84:d6:04:68:9d:1c:
         4e:a6:d8:71:b1:eb:59:d6:2f:75:94:84:fa:dd:06:2b:4f:9f:
         e3:67:cd:3c
-----BEGIN CERTIFICATE-----
MIIDYTCCAkmgAwIBAgIRALmlD3B8W6nj3C1Su+41G5kwDQYJKoZIhvcNAQELBQAw
FTETMBEGA1UEAwwKeXVud2VpLmVkdTAeFw0xODAzMjgwNzI1NTZaFw0yODAzMjUw
NzI1NTZaMBkxFzAVBgNVBAMMDjE5Mi4xNjguMzEuMTQwMIIBIjANBgkqhkiG9w0B
AQEFAAOCAQ8AMIIBCgKCAQEAypIBEMBm6qJmXi31/Zmvg8nSFfy/8c/yYJP47mZI
urppVc3HQK9yxUdhPy28AQd+cNfmp+z2WyeuV7LSjcydQ0VxCcfqQGWaaow6AT15
mvThUCeACPvjwFP/c6sFYcgqaQygpExKGXay3FUNqgyXiq9b3woLLihZCRVnM4Xn
zF/eP9vHANz+Ham7XkaknP0nn4NQSGVMKmB0LBv1wBdwLZgrJh6cwxty4VjlW0T0
z+RJH9oDwi1SLd1XlGsT8/iy48k62Ox2oHJEB7dwhM6noCbfa9aPl03xpTLnPno5
tLl2qRZKVw0rucPAHCUFeVZWev+rn2Ez4r3UUeuJUmZpgwIDAQABo4GnMIGkMAkG
A1UdEwQCMAAwHQYDVR0OBBYEFId5AGsmWm4NjBKK4V5ldQOS0HUjMEUGA1UdIwQ+
MDyAFE3dlJEo1Jvv06/6wTXteGcpuyssoRmkFzAVMRMwEQYDVQQDDAp5dW53ZWku
ZWR1ggkA4gFb3992kwcwEwYDVR0lBAwwCgYIKwYBBQUHAwEwCwYDVR0PBAQDAgWg
MA8GA1UdEQQIMAaHBMCoH4wwDQYJKoZIhvcNAQELBQADggEBAEViBUHcs94YOOUK
+mKfw24P54RQA0dhB/VUmdwYfiVFx6Gc8N7E6f3+dtKFN+vhnAQbkVPtY8k9S5Ft
ohcdhgJqBaUFnM5w3oXCdtO1vs8SdVueQjgIcsRe7et8nMgm5TUHIqAlyz0kz3DN
H8U/3us+rT0c0KKouqZXbLOeNBhx+KNeRB2YcEN8HsKuhQoWo85F/WyC40w3fm82
VEtScjcYjInuWEtat3saoZO+hupB8DtwyBxO8TD+VeIYC1DB7VLldeLUOF6J4wfX
JVDV4Lnmzq9bWb0OliQkiBno7WPQEauv3ITWBGidHE6m2HGx61nWL3WUhPrdBitP
n+NnzTw=
-----END CERTIFICATE-----
