Certificate:
    Data:
        Version: 3 (0x2)
        Serial Number:
            ca:2c:93:af:60:11:57:0e:ca:ae:1f:50:53:25:29:7a
    Signature Algorithm: sha256WithRSAEncryption
        Issuer: CN=yunwei.edu
        Validity
            Not Before: Mar 28 07:30:29 2018 GMT
            Not After : Mar 25 07:30:29 2028 GMT
        Subject: CN=client1
        Subject Public Key Info:
            Public Key Algorithm: rsaEncryption
                Public-Key: (2048 bit)
                Modulus:
                    00:b0:d2:d7:f7:cc:3e:7b:52:bf:0d:03:15:3d:c0:
                    e9:82:2f:43:28:e6:be:ed:bb:e8:fa:6c:50:2b:18:
                    f5:c8:aa:fd:a8:75:97:e3:75:44:26:68:44:93:d3:
                    a0:ea:6c:50:c1:e1:34:6a:04:81:9f:4c:73:7a:45:
                    c3:b1:cc:6e:b4:6b:92:45:10:70:c1:3d:96:a2:97:
                    92:79:3c:4f:f5:6b:83:a3:1e:27:1a:48:0a:fe:30:
                    ca:95:c2:34:7a:54:a3:e5:71:5e:8a:fe:43:ac:ec:
                    13:3f:9c:90:a3:7a:69:79:82:2d:fd:e6:22:1c:c2:
                    9c:0c:fe:fc:1c:98:7e:22:c1:04:f4:75:95:f4:0d:
                    7a:3b:72:31:27:12:61:26:92:4e:20:20:e4:ec:b8:
                    b5:03:92:c1:8e:d8:36:21:96:c0:4a:e4:9f:b8:16:
                    a3:b7:db:14:fb:20:ed:98:c6:f2:65:4c:ff:0d:5f:
                    ce:bc:05:51:39:72:50:72:39:6c:02:69:bc:24:57:
                    18:be:c3:7d:61:a2:8b:3f:fe:c2:8a:7c:62:ad:b7:
                    e3:60:93:ee:e8:78:10:70:cc:6a:af:f9:d6:1e:10:
                    ca:0b:19:7d:e5:96:fa:96:b5:9d:39:b2:47:50:98:
                    50:97:93:92:55:07:64:c1:01:8a:46:f7:75:b4:2f:
                    fb:53
                Exponent: 65537 (0x10001)
        X509v3 extensions:
            X509v3 Basic Constraints: 
                CA:FALSE
            X509v3 Subject Key Identifier: 
                31:80:A6:7E:A0:D9:14:F9:2F:84:28:5E:A6:A4:ED:D0:EC:41:28:CB
            X509v3 Authority Key Identifier: 
                keyid:4D:DD:94:91:28:D4:9B:EF:D3:AF:FA:C1:35:ED:78:67:29:BB:2B:2C
                DirName:/CN=yunwei.edu
                serial:E2:01:5B:DF:DF:76:93:07

            X509v3 Extended Key Usage: 
                TLS Web Client Authentication
            X509v3 Key Usage: 
                Digital Signature
    Signature Algorithm: sha256WithRSAEncryption
         33:23:11:29:ba:94:26:7c:a5:c1:36:ab:f4:1a:18:c0:05:57:
         10:6b:46:47:e3:de:d5:6c:44:9c:8c:03:b8:e2:38:4f:f1:0a:
         fb:62:04:a2:44:2d:d1:a4:74:be:3e:bd:f2:f7:1a:7f:a2:d6:
         82:4a:c2:41:96:0e:84:97:0a:26:f0:4c:a8:3f:dc:6f:a6:a1:
         d7:4c:d3:59:c2:9a:25:e0:95:b6:c3:de:f8:2f:12:1a:89:19:
         89:7c:61:53:94:fe:be:97:41:ea:40:a6:5d:11:71:f6:f2:68:
         c4:30:98:09:db:77:c1:10:23:d1:5f:a9:ce:63:56:1c:0c:4e:
         10:9e:e0:54:f5:d4:47:7c:b7:79:21:73:ca:5c:67:95:6a:97:
         cc:fd:e1:fe:ed:41:b1:24:37:28:42:30:7a:0d:92:44:7f:a5:
         e2:d2:d1:5b:d9:89:07:df:c5:b0:ae:40:e6:9e:6b:85:43:a6:
         c2:f8:d1:03:33:d7:f5:c7:16:42:42:33:e0:fb:ce:b1:6d:09:
         85:1f:9c:b4:ae:3d:77:8c:c6:13:76:a0:48:33:6b:93:a1:c4:
         0f:29:d4:ee:a5:ba:63:34:0a:53:83:ac:c0:69:b6:37:16:e0:
         d4:e2:07:85:c0:37:64:a4:9c:42:43:f9:cd:f3:e5:54:d0:92:
         dc:88:df:c4
-----BEGIN CERTIFICATE-----
MIIDSTCCAjGgAwIBAgIRAMosk69gEVcOyq4fUFMlKXowDQYJKoZIhvcNAQELBQAw
FTETMBEGA1UEAwwKeXVud2VpLmVkdTAeFw0xODAzMjgwNzMwMjlaFw0yODAzMjUw
NzMwMjlaMBIxEDAOBgNVBAMMB2NsaWVudDEwggEiMA0GCSqGSIb3DQEBAQUAA4IB
DwAwggEKAoIBAQCw0tf3zD57Ur8NAxU9wOmCL0Mo5r7tu+j6bFArGPXIqv2odZfj
dUQmaEST06DqbFDB4TRqBIGfTHN6RcOxzG60a5JFEHDBPZail5J5PE/1a4OjHica
SAr+MMqVwjR6VKPlcV6K/kOs7BM/nJCjeml5gi395iIcwpwM/vwcmH4iwQT0dZX0
DXo7cjEnEmEmkk4gIOTsuLUDksGO2DYhlsBK5J+4FqO32xT7IO2YxvJlTP8NX868
BVE5clByOWwCabwkVxi+w31hoos//sKKfGKtt+Ngk+7oeBBwzGqv+dYeEMoLGX3l
lvqWtZ05skdQmFCXk5JVB2TBAYpG93W0L/tTAgMBAAGjgZYwgZMwCQYDVR0TBAIw
ADAdBgNVHQ4EFgQUMYCmfqDZFPkvhChepqTt0OxBKMswRQYDVR0jBD4wPIAUTd2U
kSjUm+/Tr/rBNe14Zym7KyyhGaQXMBUxEzARBgNVBAMMCnl1bndlaS5lZHWCCQDi
AVvf33aTBzATBgNVHSUEDDAKBggrBgEFBQcDAjALBgNVHQ8EBAMCB4AwDQYJKoZI
hvcNAQELBQADggEBADMjESm6lCZ8pcE2q/QaGMAFVxBrRkfj3tVsRJyMA7jiOE/x
CvtiBKJELdGkdL4+vfL3Gn+i1oJKwkGWDoSXCibwTKg/3G+moddM01nCmiXglbbD
3vgvEhqJGYl8YVOU/r6XQepApl0RcfbyaMQwmAnbd8EQI9Ffqc5jVhwMThCe4FT1
1Ed8t3khc8pcZ5Vql8z94f7tQbEkNyhCMHoNkkR/peLS0VvZiQffxbCuQOaea4VD
psL40QMz1/XHFkJCM+D7zrFtCYUfnLSuPXeMxhN2oEgza5OhxA8p1O6lumM0ClOD
rMBptjcW4NTiB4XAN2SknEJD+c3z5VTQktyI38Q=
-----END CERTIFICATE-----
