Certificate:
    Data:
        Version: 3 (0x2)
        Serial Number:
            d4:3f:a1:80:e1:e7:1d:7f:6a:db:a0:09:1f:6a:7e:ed
    Signature Algorithm: sha256WithRSAEncryption
        Issuer: CN=yunwei.edu
        Validity
            Not Before: Apr 18 15:21:47 2018 GMT
            Not After : Apr 15 15:21:47 2028 GMT
        Subject: CN=client3
        Subject Public Key Info:
            Public Key Algorithm: rsaEncryption
                Public-Key: (2048 bit)
                Modulus:
                    00:c4:dc:87:29:d8:d8:ed:3d:52:6b:64:cc:51:ac:
                    8a:2b:49:5c:f6:3d:c8:2b:60:19:b8:ff:f1:b4:28:
                    ad:6a:f6:1e:c2:6f:f1:06:32:e0:e0:91:d6:3d:45:
                    5a:11:7d:95:1c:53:49:0c:e7:68:d3:82:14:4e:a2:
                    e9:d8:d3:11:00:81:05:f9:73:05:8d:d3:ae:f3:f4:
                    9c:9e:ec:0a:2b:fc:b0:b9:ba:63:02:e3:1d:a7:0f:
                    9c:97:79:bb:5b:df:af:75:0c:8b:5f:01:83:7c:56:
                    e3:16:72:0e:69:9f:28:8d:11:87:0a:51:ee:21:47:
                    db:d5:6e:e7:cb:62:c0:e3:1e:a9:1e:b5:f0:3c:17:
                    c7:b0:eb:3e:d6:79:f5:3b:37:23:58:22:24:fc:37:
                    d3:4b:76:f7:9f:0c:7d:90:ff:c7:c1:7e:a5:4f:6e:
                    94:74:83:5a:18:64:31:9d:2e:17:4a:0f:94:79:3c:
                    a0:6c:c3:d1:fb:d5:87:97:68:28:60:d9:4a:b0:cf:
                    7c:1f:3b:62:96:d5:db:17:80:2d:bb:fa:55:e5:16:
                    eb:4c:fc:d8:39:f9:e9:b6:65:df:7d:f2:dc:b0:6a:
                    1f:1c:bf:71:37:bd:91:c1:3c:cc:1b:54:df:ca:17:
                    eb:c4:6b:80:48:61:8d:14:f1:34:cc:50:7f:67:79:
                    18:f7
                Exponent: 65537 (0x10001)
        X509v3 extensions:
            X509v3 Basic Constraints: 
                CA:FALSE
            X509v3 Subject Key Identifier: 
                06:6F:60:50:AA:4D:10:77:62:B6:19:0A:59:44:2C:0F:4B:60:4B:8D
            X509v3 Authority Key Identifier: 
                keyid:4D:DD:94:91:28:D4:9B:EF:D3:AF:FA:C1:35:ED:78:67:29:BB:2B:2C
                DirName:/CN=yunwei.edu
                serial:E2:01:5B:DF:DF:76:93:07

            X509v3 Extended Key Usage: 
                TLS Web Client Authentication
            X509v3 Key Usage: 
                Digital Signature
    Signature Algorithm: sha256WithRSAEncryption
         b4:54:b3:d9:c3:11:25:a5:5c:54:30:4d:97:c7:39:d9:7d:ea:
         a9:ea:cc:3c:16:af:bd:87:33:f9:f5:c8:27:ad:f4:80:1b:0f:
         37:0b:c0:d6:c5:3c:81:1a:b0:bd:17:85:d7:3f:8b:df:b7:91:
         a3:af:50:05:a7:89:00:05:58:b8:96:3d:0c:c3:dc:e4:00:2b:
         08:8b:a6:ec:9e:8a:04:e4:d8:a7:71:3e:1a:c0:8c:96:93:62:
         95:9d:5c:ef:59:49:cc:c5:77:f5:a9:e4:f2:1e:75:f3:ff:03:
         1d:49:5e:28:2a:34:07:a2:2f:04:15:14:b7:8d:88:0d:e3:f5:
         e5:bf:7f:4d:fe:91:e2:65:97:08:8e:3e:ac:b4:45:22:20:53:
         cc:d2:2d:ad:5b:f3:f2:eb:c8:95:1a:6b:f3:34:9f:7d:38:33:
         4e:5e:26:6d:60:43:9a:90:ed:f4:13:c4:08:7f:87:93:e5:57:
         d6:55:37:d0:35:77:d8:e8:21:65:0f:7a:c3:89:cc:1e:c9:4b:
         a2:19:0f:b4:c3:b8:01:bc:5a:52:1b:99:04:57:d1:bb:63:79:
         0f:f0:16:80:d5:41:79:95:f8:8e:7a:ab:ab:8b:e5:0d:4c:53:
         a7:42:ed:20:79:04:51:33:c9:15:76:41:fe:03:20:0a:f5:e8:
         5e:54:69:d2
-----BEGIN CERTIFICATE-----
MIIDSTCCAjGgAwIBAgIRANQ/oYDh5x1/atugCR9qfu0wDQYJKoZIhvcNAQELBQAw
FTETMBEGA1UEAwwKeXVud2VpLmVkdTAeFw0xODA0MTgxNTIxNDdaFw0yODA0MTUx
NTIxNDdaMBIxEDAOBgNVBAMMB2NsaWVudDMwggEiMA0GCSqGSIb3DQEBAQUAA4IB
DwAwggEKAoIBAQDE3Icp2NjtPVJrZMxRrIorSVz2PcgrYBm4//G0KK1q9h7Cb/EG
MuDgkdY9RVoRfZUcU0kM52jTghROounY0xEAgQX5cwWN067z9Jye7Aor/LC5umMC
4x2nD5yXebtb3691DItfAYN8VuMWcg5pnyiNEYcKUe4hR9vVbufLYsDjHqketfA8
F8ew6z7WefU7NyNYIiT8N9NLdvefDH2Q/8fBfqVPbpR0g1oYZDGdLhdKD5R5PKBs
w9H71YeXaChg2Uqwz3wfO2KW1dsXgC27+lXlFutM/Ng5+em2Zd998tywah8cv3E3
vZHBPMwbVN/KF+vEa4BIYY0U8TTMUH9neRj3AgMBAAGjgZYwgZMwCQYDVR0TBAIw
ADAdBgNVHQ4EFgQUBm9gUKpNEHdithkKWUQsD0tgS40wRQYDVR0jBD4wPIAUTd2U
kSjUm+/Tr/rBNe14Zym7KyyhGaQXMBUxEzARBgNVBAMMCnl1bndlaS5lZHWCCQDi
AVvf33aTBzATBgNVHSUEDDAKBggrBgEFBQcDAjALBgNVHQ8EBAMCB4AwDQYJKoZI
hvcNAQELBQADggEBALRUs9nDESWlXFQwTZfHOdl96qnqzDwWr72HM/n1yCet9IAb
DzcLwNbFPIEasL0Xhdc/i9+3kaOvUAWniQAFWLiWPQzD3OQAKwiLpuyeigTk2Kdx
PhrAjJaTYpWdXO9ZSczFd/Wp5PIedfP/Ax1JXigqNAeiLwQVFLeNiA3j9eW/f03+
keJllwiOPqy0RSIgU8zSLa1b8/LryJUaa/M0n304M05eJm1gQ5qQ7fQTxAh/h5Pl
V9ZVN9A1d9joIWUPesOJzB7JS6IZD7TDuAG8WlIbmQRX0btjeQ/wFoDVQXmV+I56
q6uL5Q1MU6dC7SB5BFEzyRV2Qf4DIAr16F5UadI=
-----END CERTIFICATE-----
